; Function Attrs: mustprogress uwtable
define internal void @_ZN3pro7details25invocation_dispatcher_refIPSt6vectorINSt7__cxx1112basic_stringIcSt11char_traitsIcESaIcEEESaIS8_EEN12_GLOBAL__N_14spec6WeakAt4__FTES8_JiEEET1_PKSt4byteDpT2_(ptr dead_on_unwind noalias writable sret(%"class.std::__cxx11::basic_string") align 8 %0, ptr nocapture noundef readonly %1, i32 noundef %2) #3 {
  %4 = load ptr, ptr %1, align 8
  %.val = load ptr, ptr %4, align 8
  %5 = getelementptr i8, ptr %4, i64 8
  %.val1 = load ptr, ptr %5, align 8
  %6 = sext i32 %2 to i64
  %7 = ptrtoint ptr %.val1 to i64
  %8 = ptrtoint ptr %.val to i64
  %9 = sub i64 %7, %8
  %10 = ashr exact i64 %9, 5
  %.not.i.i.i.i = icmp ugt i64 %10, %6
  br i1 %.not.i.i.i.i, label %_ZN3pro7details15invoke_dispatchIN12_GLOBAL__N_14spec6WeakAt4__FTENSt7__cxx1112basic_stringIcSt11char_traitsIcESaIcEEEJRSt6vectorISB_SaISB_EEiEEET0_DpOT1_.exit, label %11

11:                                               ; preds = %3
  tail call void (ptr, ...) @_ZSt24__throw_out_of_range_fmtPKcz(ptr noundef nonnull @.str.97, i64 noundef %6, i64 noundef %10) #26, !noalias !377
  unreachable

_ZN3pro7details15invoke_dispatchIN12_GLOBAL__N_14spec6WeakAt4__FTENSt7__cxx1112basic_stringIcSt11char_traitsIcESaIcEEEJRSt6vectorISB_SaISB_EEiEEET0_DpOT1_.exit: ; preds = %3
  %12 = getelementptr inbounds %"class.std::__cxx11::basic_string", ptr %.val, i64 %6
  tail call void @_ZNSt7__cxx1112basic_stringIcSt11char_traitsIcESaIcEEC2ERKS4_(ptr noundef nonnull align 8 dereferenceable(32) %0, ptr noundef nonnull align 8 dereferenceable(32) %12)
  ret void
}